; Function Attrs: nounwind sspstrong uwtable
define dso_local void @tcg_gen_gvec_andc(i32 noundef %0, i32 noundef %1, i32 noundef %2, i32 noundef %3, i32 noundef %4, i32 noundef %5) local_unnamed_addr #2 {
  %7 = icmp eq i32 %2, %3
  br i1 %7, label %8, label %20

8:                                                ; preds = %6
  switch i32 %4, label %11 [
    i32 8, label %9
    i32 16, label %9
    i32 32, label %9
  ]

9:                                                ; preds = %8, %8, %8
  %10 = icmp ule i32 %4, %5
  br label %tcg_gen_gvec_dup_imm.exit

11:                                               ; preds = %8
  %12 = icmp eq i32 %4, %5
  br label %tcg_gen_gvec_dup_imm.exit

tcg_gen_gvec_dup_imm.exit:                        ; preds = %9, %11
  %.sink.i.i = phi i1 [ %10, %9 ], [ %12, %11 ]
  tail call void @llvm.assume(i1 %.sink.i.i)
  %13 = icmp ult i32 %5, 2049
  tail call void @llvm.assume(i1 %13)
  %14 = icmp samesign ugt i32 %5, 15
  %15 = select i1 %14, i32 15, i32 7
  %16 = and i32 %15, %5
  %17 = icmp eq i32 %16, 0
  tail call void @llvm.assume(i1 %17)
  %18 = and i32 %15, %1
  %19 = icmp eq i32 %18, 0
  tail call void @llvm.assume(i1 %19)
  tail call fastcc void @do_dup(i32 noundef 3, i32 noundef %1, i32 noundef %4, i32 noundef %5, ptr noundef null, ptr noundef null, i64 noundef 0)
  br label %21

20:                                               ; preds = %6
  tail call void @tcg_gen_gvec_3(i32 noundef %1, i32 noundef %2, i32 noundef %3, i32 noundef %4, i32 noundef %5, ptr noundef nonnull @tcg_gen_gvec_andc.g)
  br label %21

21:                                               ; preds = %20, %tcg_gen_gvec_dup_imm.exit
  ret void
}